target datalayout = "e-m:e-p270:32:32-p271:32:32-p272:64:64-i64:64-i128:128-f80:128-n8:16:32:64-S128"
target triple = "x86_64-pc-linux-gnu"

%struct.SDL_HIDAPI_Device = type { ptr, ptr, ptr, ptr, i16, i16, i16, ptr, %struct.SDL_GUID, i32, i32, i32, i32, i16, i16, i8, i32, i32, i32, ptr, ptr, ptr, ptr, %struct.SDL_AtomicInt, i32, ptr, i8, i8, i8, ptr, i32, ptr, ptr }
%struct.SDL_GUID = type { [16 x i8] }
%struct.SDL_AtomicInt = type { i32 }
%struct.ShieldCommandReport_t = type { i8, i8, i8, [30 x i8] }
%struct.SDL_DriverShield_Context = type { i8, i8, i8, i8, i8, i64, i8, i8, i8, i8, i64, [64 x i8] }

@.str.3 = private unnamed_addr constant [37 x i8] c"Command data exceeds HID report size\00", align 1
@.str.4 = private unnamed_addr constant [29 x i8] c"Couldn't send command packet\00", align 1
@__const.HIDAPI_DriverShield_RumbleJoystick.rumble_packet = private unnamed_addr constant [7 x i8] c"\01\00\00\00\00\00\00", align 1
@.str.5 = private unnamed_addr constant [28 x i8] c"Couldn't send rumble packet\00", align 1

; Function Attrs: nounwind uwtable
define internal zeroext i1 @HIDAPI_DriverShield_SendCommand(ptr noundef %0, i8 noundef zeroext %1, ptr noundef %2, i32 noundef %3) #0 {
  %5 = alloca i1, align 1
  %6 = alloca ptr, align 8
  %7 = alloca i8, align 1
  %8 = alloca ptr, align 8
  %9 = alloca i32, align 4
  %10 = alloca ptr, align 8
  %11 = alloca %struct.ShieldCommandReport_t, align 1
  %12 = alloca i32, align 4
  store ptr %0, ptr %6, align 8
  store i8 %1, ptr %7, align 1
  store ptr %2, ptr %8, align 8
  store i32 %3, ptr %9, align 4
  call void @llvm.lifetime.start.p0(i64 8, ptr %10) #6
  %13 = load ptr, ptr %6, align 8
  %14 = getelementptr inbounds nuw %struct.SDL_HIDAPI_Device, ptr %13, i32 0, i32 20
  %15 = load ptr, ptr %14, align 8
  store ptr %15, ptr %10, align 8
  call void @llvm.lifetime.start.p0(i64 33, ptr %11) #6
  %16 = load i32, ptr %9, align 4
  %17 = sext i32 %16 to i64
  %18 = icmp ugt i64 %17, 30
  br i1 %18, label %19, label %21

19:                                               ; preds = %4
  %20 = call zeroext i1 (ptr, ...) @SDL_SetError_REAL(ptr noundef @.str.3)
  store i1 %20, ptr %5, align 1
  store i32 1, ptr %12, align 4
  br label %61

21:                                               ; preds = %4
  %22 = call zeroext i1 @SDL_HIDAPI_LockRumble()
  br i1 %22, label %24, label %23

23:                                               ; preds = %21
  store i1 false, ptr %5, align 1
  store i32 1, ptr %12, align 4
  br label %61

24:                                               ; preds = %21
  %25 = getelementptr inbounds nuw %struct.ShieldCommandReport_t, ptr %11, i32 0, i32 0
  store i8 4, ptr %25, align 1
  %26 = load i8, ptr %7, align 1
  %27 = getelementptr inbounds nuw %struct.ShieldCommandReport_t, ptr %11, i32 0, i32 1
  store i8 %26, ptr %27, align 1
  %28 = load ptr, ptr %10, align 8
  %29 = getelementptr inbounds nuw %struct.SDL_DriverShield_Context, ptr %28, i32 0, i32 0
  %30 = load i8, ptr %29, align 8
  %31 = add i8 %30, 1
  store i8 %31, ptr %29, align 8
  %32 = getelementptr inbounds nuw %struct.ShieldCommandReport_t, ptr %11, i32 0, i32 2
  store i8 %30, ptr %32, align 1
  %33 = load ptr, ptr %8, align 8
  %34 = icmp ne ptr %33, null
  br i1 %34, label %35, label %41

35:                                               ; preds = %24
  %36 = getelementptr inbounds nuw %struct.ShieldCommandReport_t, ptr %11, i32 0, i32 3
  %37 = getelementptr inbounds [30 x i8], ptr %36, i64 0, i64 0
  %38 = load ptr, ptr %8, align 8
  %39 = load i32, ptr %9, align 4
  %40 = sext i32 %39 to i64
  call void @llvm.memcpy.p0.p0.i64(ptr align 1 %37, ptr align 1 %38, i64 %40, i1 false)
  br label %41

41:                                               ; preds = %35, %24
  %42 = load i32, ptr %9, align 4
  %43 = sext i32 %42 to i64
  %44 = icmp ne i64 %43, 30
  br i1 %44, label %45, label %53

45:                                               ; preds = %41
  %46 = getelementptr inbounds nuw %struct.ShieldCommandReport_t, ptr %11, i32 0, i32 3
  %47 = load i32, ptr %9, align 4
  %48 = sext i32 %47 to i64
  %49 = getelementptr inbounds [30 x i8], ptr %46, i64 0, i64 %48
  %50 = load i32, ptr %9, align 4
  %51 = sext i32 %50 to i64
  %52 = sub i64 30, %51
  call void @llvm.memset.p0.i64(ptr align 1 %49, i8 0, i64 %52, i1 false)
  br label %53

53:                                               ; preds = %45, %41
  %54 = load ptr, ptr %6, align 8
  %55 = call i32 @SDL_HIDAPI_SendRumbleAndUnlock(ptr noundef %54, ptr noundef %11, i32 noundef 33)
  %56 = sext i32 %55 to i64
  %57 = icmp ne i64 %56, 33
  br i1 %57, label %58, label %60

58:                                               ; preds = %53
  %59 = call zeroext i1 (ptr, ...) @SDL_SetError_REAL(ptr noundef @.str.4)
  store i1 %59, ptr %5, align 1
  store i32 1, ptr %12, align 4
  br label %61

60:                                               ; preds = %53
  store i1 true, ptr %5, align 1
  store i32 1, ptr %12, align 4
  br label %61

61:                                               ; preds = %60, %58, %23, %19
  call void @llvm.lifetime.end.p0(i64 33, ptr %11) #6
  call void @llvm.lifetime.end.p0(i64 8, ptr %10) #6
  %62 = load i1, ptr %5, align 1
  ret i1 %62
}

; Function Attrs: nounwind uwtable
define internal zeroext i1 @HIDAPI_DriverShield_SendNextRumble(ptr noundef %0) #0 {
  %2 = alloca i1, align 1
  %3 = alloca ptr, align 8
  %4 = alloca ptr, align 8
  %5 = alloca [3 x i8], align 1
  %6 = alloca i32, align 4
  store ptr %0, ptr %3, align 8
  call void @llvm.lifetime.start.p0(i64 8, ptr %4) #6
  %7 = load ptr, ptr %3, align 8
  %8 = getelementptr inbounds nuw %struct.SDL_HIDAPI_Device, ptr %7, i32 0, i32 20
  %9 = load ptr, ptr %8, align 8
  store ptr %9, ptr %4, align 8
  call void @llvm.lifetime.start.p0(i64 3, ptr %5) #6
  %10 = load ptr, ptr %4, align 8
  %11 = getelementptr inbounds nuw %struct.SDL_DriverShield_Context, ptr %10, i32 0, i32 7
  %12 = load i8, ptr %11, align 1, !range !5, !noundef !6
  %13 = trunc i8 %12 to i1
  br i1 %13, label %15, label %14

14:                                               ; preds = %1
  store i1 true, ptr %2, align 1
  store i32 1, ptr %6, align 4
  br label %33

15:                                               ; preds = %1
  %16 = getelementptr inbounds [3 x i8], ptr %5, i64 0, i64 0
  store i8 1, ptr %16, align 1
  %17 = load ptr, ptr %4, align 8
  %18 = getelementptr inbounds nuw %struct.SDL_DriverShield_Context, ptr %17, i32 0, i32 8
  %19 = load i8, ptr %18, align 2
  %20 = getelementptr inbounds [3 x i8], ptr %5, i64 0, i64 1
  store i8 %19, ptr %20, align 1
  %21 = load ptr, ptr %4, align 8
  %22 = getelementptr inbounds nuw %struct.SDL_DriverShield_Context, ptr %21, i32 0, i32 9
  %23 = load i8, ptr %22, align 1
  %24 = getelementptr inbounds [3 x i8], ptr %5, i64 0, i64 2
  store i8 %23, ptr %24, align 1
  %25 = load ptr, ptr %4, align 8
  %26 = getelementptr inbounds nuw %struct.SDL_DriverShield_Context, ptr %25, i32 0, i32 7
  store i8 0, ptr %26, align 1
  %27 = call i64 @SDL_GetTicks_REAL()
  %28 = load ptr, ptr %4, align 8
  %29 = getelementptr inbounds nuw %struct.SDL_DriverShield_Context, ptr %28, i32 0, i32 10
  store i64 %27, ptr %29, align 8
  %30 = load ptr, ptr %3, align 8
  %31 = getelementptr inbounds [3 x i8], ptr %5, i64 0, i64 0
  %32 = call zeroext i1 @HIDAPI_DriverShield_SendCommand(ptr noundef %30, i8 noundef zeroext 57, ptr noundef %31, i32 noundef 3)
  store i1 %32, ptr %2, align 1
  store i32 1, ptr %6, align 4
  br label %33

33:                                               ; preds = %15, %14
  call void @llvm.lifetime.end.p0(i64 3, ptr %5) #6
  call void @llvm.lifetime.end.p0(i64 8, ptr %4) #6
  %34 = load i1, ptr %2, align 1
  ret i1 %34
}

; Function Attrs: nounwind uwtable
define internal zeroext i1 @HIDAPI_DriverShield_RumbleJoystick(ptr noundef %0, ptr noundef %1, i16 noundef zeroext %2, i16 noundef zeroext %3) #0 {
  %5 = alloca i1, align 1
  %6 = alloca ptr, align 8
  %7 = alloca ptr, align 8
  %8 = alloca i16, align 2
  %9 = alloca i16, align 2
  %10 = alloca [7 x i8], align 1
  %11 = alloca i32, align 4
  %12 = alloca ptr, align 8
  store ptr %0, ptr %6, align 8
  store ptr %1, ptr %7, align 8
  store i16 %2, ptr %8, align 2
  store i16 %3, ptr %9, align 2
  %13 = load ptr, ptr %6, align 8
  %14 = getelementptr inbounds nuw %struct.SDL_HIDAPI_Device, ptr %13, i32 0, i32 5
  %15 = load i16, ptr %14, align 2
  %16 = zext i16 %15 to i32
  %17 = icmp eq i32 %16, 29200
  br i1 %17, label %18, label %38

18:                                               ; preds = %4
  call void @llvm.lifetime.start.p0(i64 7, ptr %10) #6
  call void @llvm.memcpy.p0.p0.i64(ptr align 1 %10, ptr align 1 @__const.HIDAPI_DriverShield_RumbleJoystick.rumble_packet, i64 7, i1 false)
  %19 = load i16, ptr %8, align 2
  %20 = zext i16 %19 to i32
  %21 = ashr i32 %20, 8
  %22 = trunc i32 %21 to i8
  %23 = getelementptr inbounds [7 x i8], ptr %10, i64 0, i64 2
  store i8 %22, ptr %23, align 1
  %24 = load i16, ptr %9, align 2
  %25 = zext i16 %24 to i32
  %26 = ashr i32 %25, 8
  %27 = trunc i32 %26 to i8
  %28 = getelementptr inbounds [7 x i8], ptr %10, i64 0, i64 4
  store i8 %27, ptr %28, align 1
  %29 = load ptr, ptr %6, align 8
  %30 = getelementptr inbounds [7 x i8], ptr %10, i64 0, i64 0
  %31 = call i32 @SDL_HIDAPI_SendRumble(ptr noundef %29, ptr noundef %30, i32 noundef 7)
  %32 = sext i32 %31 to i64
  %33 = icmp ne i64 %32, 7
  br i1 %33, label %34, label %36

34:                                               ; preds = %18
  %35 = call zeroext i1 (ptr, ...) @SDL_SetError_REAL(ptr noundef @.str.5)
  store i1 %35, ptr %5, align 1
  store i32 1, ptr %11, align 4
  br label %37

36:                                               ; preds = %18
  store i1 true, ptr %5, align 1
  store i32 1, ptr %11, align 4
  br label %37

37:                                               ; preds = %36, %34
  call void @llvm.lifetime.end.p0(i64 7, ptr %10) #6
  br label %65

38:                                               ; preds = %4
  call void @llvm.lifetime.start.p0(i64 8, ptr %12) #6
  %39 = load ptr, ptr %6, align 8
  %40 = getelementptr inbounds nuw %struct.SDL_HIDAPI_Device, ptr %39, i32 0, i32 20
  %41 = load ptr, ptr %40, align 8
  store ptr %41, ptr %12, align 8
  %42 = load i16, ptr %8, align 2
  %43 = zext i16 %42 to i32
  %44 = ashr i32 %43, 11
  %45 = trunc i32 %44 to i8
  %46 = load ptr, ptr %12, align 8
  %47 = getelementptr inbounds nuw %struct.SDL_DriverShield_Context, ptr %46, i32 0, i32 8
  store i8 %45, ptr %47, align 2
  %48 = load i16, ptr %9, align 2
  %49 = zext i16 %48 to i32
  %50 = ashr i32 %49, 11
  %51 = trunc i32 %50 to i8
  %52 = load ptr, ptr %12, align 8
  %53 = getelementptr inbounds nuw %struct.SDL_DriverShield_Context, ptr %52, i32 0, i32 9
  store i8 %51, ptr %53, align 1
  %54 = load ptr, ptr %12, align 8
  %55 = getelementptr inbounds nuw %struct.SDL_DriverShield_Context, ptr %54, i32 0, i32 7
  store i8 1, ptr %55, align 1
  %56 = load ptr, ptr %12, align 8
  %57 = getelementptr inbounds nuw %struct.SDL_DriverShield_Context, ptr %56, i32 0, i32 6
  %58 = load i8, ptr %57, align 8, !range !5, !noundef !6
  %59 = trunc i8 %58 to i1
  br i1 %59, label %60, label %61

60:                                               ; preds = %38
  store i1 true, ptr %5, align 1
  store i32 1, ptr %11, align 4
  br label %64

61:                                               ; preds = %38
  %62 = load ptr, ptr %6, align 8
  %63 = call zeroext i1 @HIDAPI_DriverShield_SendNextRumble(ptr noundef %62)
  store i1 %63, ptr %5, align 1
  store i32 1, ptr %11, align 4
  br label %64

64:                                               ; preds = %61, %60
  call void @llvm.lifetime.end.p0(i64 8, ptr %12) #6
  br label %65

65:                                               ; preds = %64, %37
  %66 = load i1, ptr %5, align 1
  ret i1 %66
}