; Function Attrs: nounwind uwtable
define internal zeroext i1 @HIDAPI_DriverShield_RumbleJoystick(ptr noundef %0, ptr readnone captures(none) %1, i16 noundef zeroext %2, i16 noundef zeroext %3) #0 {
  %5 = alloca %struct.ShieldCommandReport_t, align 1
  %6 = alloca [7 x i8], align 1
  %7 = getelementptr inbounds nuw i8, ptr %0, i64 34
  %8 = load i16, ptr %7, align 2
  %9 = icmp eq i16 %8, 29200
  br i1 %9, label %10, label %21

10:                                               ; preds = %4
  call void @llvm.lifetime.start.p0(i64 7, ptr nonnull %6) #8
  call void @llvm.memcpy.p0.p0.i64(ptr noundef nonnull align 1 dereferenceable(7) %6, ptr noundef nonnull align 1 dereferenceable(7) @__const.HIDAPI_DriverShield_RumbleJoystick.rumble_packet, i64 7, i1 false)
  %11 = lshr i16 %2, 8
  %12 = trunc nuw i16 %11 to i8
  %13 = getelementptr inbounds nuw i8, ptr %6, i64 2
  store i8 %12, ptr %13, align 1
  %14 = lshr i16 %3, 8
  %15 = trunc nuw i16 %14 to i8
  %16 = getelementptr inbounds nuw i8, ptr %6, i64 4
  store i8 %15, ptr %16, align 1
  %17 = call i32 @SDL_HIDAPI_SendRumble(ptr noundef nonnull %0, ptr noundef nonnull %6, i32 noundef 7) #8
  %.not = icmp eq i32 %17, 7
  br i1 %.not, label %20, label %18

18:                                               ; preds = %10
  %19 = call zeroext i1 (ptr, ...) @SDL_SetError_REAL(ptr noundef nonnull @.str.5) #8
  br label %20

20:                                               ; preds = %10, %18
  %.0 = phi i1 [ %19, %18 ], [ true, %10 ]
  call void @llvm.lifetime.end.p0(i64 7, ptr nonnull %6) #8
  br label %HIDAPI_DriverShield_SendNextRumble.exit

21:                                               ; preds = %4
  %22 = getelementptr inbounds nuw i8, ptr %0, i64 112
  %23 = load ptr, ptr %22, align 8
  %24 = lshr i16 %2, 11
  %25 = trunc nuw nsw i16 %24 to i8
  %26 = getelementptr inbounds nuw i8, ptr %23, i64 18
  store i8 %25, ptr %26, align 2
  %27 = lshr i16 %3, 11
  %28 = trunc nuw nsw i16 %27 to i8
  %29 = getelementptr inbounds nuw i8, ptr %23, i64 19
  store i8 %28, ptr %29, align 1
  %30 = getelementptr inbounds nuw i8, ptr %23, i64 17
  store i8 1, ptr %30, align 1
  %31 = getelementptr inbounds nuw i8, ptr %23, i64 16
  %32 = load i8, ptr %31, align 8, !range !3, !noundef !4
  %33 = trunc nuw i8 %32 to i1
  br i1 %33, label %HIDAPI_DriverShield_SendNextRumble.exit, label %34

34:                                               ; preds = %21
  %35 = load ptr, ptr %22, align 8
  %36 = getelementptr inbounds nuw i8, ptr %35, i64 17
  %37 = load i8, ptr %36, align 1, !range !3, !noundef !4
  %38 = trunc nuw i8 %37 to i1
  br i1 %38, label %39, label %HIDAPI_DriverShield_SendNextRumble.exit

39:                                               ; preds = %34
  %40 = getelementptr inbounds nuw i8, ptr %35, i64 18
  %41 = load i8, ptr %40, align 2
  %42 = getelementptr inbounds nuw i8, ptr %35, i64 19
  %43 = load i8, ptr %42, align 1
  store i8 0, ptr %36, align 1
  %44 = tail call i64 @SDL_GetTicks_REAL() #8
  %45 = getelementptr inbounds nuw i8, ptr %35, i64 24
  store i64 %44, ptr %45, align 8
  %46 = load ptr, ptr %22, align 8
  call void @llvm.lifetime.start.p0(i64 33, ptr nonnull %5) #8
  %47 = tail call zeroext i1 @SDL_HIDAPI_LockRumble() #8
  br i1 %47, label %48, label %HIDAPI_DriverShield_SendCommand.exit.i

48:                                               ; preds = %39
  store i8 4, ptr %5, align 1
  %49 = getelementptr inbounds nuw i8, ptr %5, i64 1
  store i8 57, ptr %49, align 1
  %50 = load i8, ptr %46, align 8
  %51 = add i8 %50, 1
  store i8 %51, ptr %46, align 8
  %52 = getelementptr inbounds nuw i8, ptr %5, i64 2
  store i8 %50, ptr %52, align 1
  %53 = getelementptr inbounds nuw i8, ptr %5, i64 3
  store i8 1, ptr %53, align 1
  %.sroa.4.0..sroa_idx.i = getelementptr inbounds nuw i8, ptr %5, i64 4
  store i8 %41, ptr %.sroa.4.0..sroa_idx.i, align 1
  %.sroa.5.0..sroa_idx.i = getelementptr inbounds nuw i8, ptr %5, i64 5
  store i8 %43, ptr %.sroa.5.0..sroa_idx.i, align 1
  %54 = getelementptr inbounds nuw i8, ptr %5, i64 6
  call void @llvm.memset.p0.i64(ptr noundef nonnull align 1 dereferenceable(27) %54, i8 0, i64 27, i1 false)
  %55 = call i32 @SDL_HIDAPI_SendRumbleAndUnlock(ptr noundef nonnull %0, ptr noundef nonnull %5, i32 noundef 33) #8
  %.not14.i.i = icmp eq i32 %55, 33
  br i1 %.not14.i.i, label %HIDAPI_DriverShield_SendCommand.exit.i, label %56

56:                                               ; preds = %48
  %57 = call zeroext i1 (ptr, ...) @SDL_SetError_REAL(ptr noundef nonnull @.str.4) #8
  br label %HIDAPI_DriverShield_SendCommand.exit.i

HIDAPI_DriverShield_SendCommand.exit.i:           ; preds = %56, %48, %39
  %.0.i.i = phi i1 [ %57, %56 ], [ false, %39 ], [ true, %48 ]
  call void @llvm.lifetime.end.p0(i64 33, ptr nonnull %5) #8
  br label %HIDAPI_DriverShield_SendNextRumble.exit

HIDAPI_DriverShield_SendNextRumble.exit:          ; preds = %HIDAPI_DriverShield_SendCommand.exit.i, %34, %21, %20
  %.1 = phi i1 [ %.0, %20 ], [ true, %21 ], [ %.0.i.i, %HIDAPI_DriverShield_SendCommand.exit.i ], [ true, %34 ]
  ret i1 %.1
}